target datalayout = "e-m:e-p270:32:32-p271:32:32-p272:64:64-i64:64-i128:128-f80:128-n8:16:32:64-S128"
target triple = "x86_64-pc-linux-gnu"

%class.compiledVFrame = type <{ %class.javaVFrame, ptr, i32, [4 x i8] }>
%class.javaVFrame = type { %class.vframe }
%class.vframe = type { ptr, %class.frame, %class.RegisterMap, ptr, %class.stackChunkHandle }
%class.frame = type { %union.anon, ptr, ptr, ptr, i32, i8, %union.anon.0, %union.anon.1 }
%union.anon = type { ptr }
%union.anon.0 = type { ptr }
%union.anon.1 = type { ptr }
%class.RegisterMap = type <{ [609 x ptr], [10 x i64], i8, [7 x i8], ptr, %class.stackChunkHandle, i32, i8, i8, i8, i8 }>
%class.stackChunkHandle = type { %class.Handle }
%class.Handle = type { ptr }
%class.jvmtiDeferredLocalVariableSet = type <{ ptr, i32, [4 x i8], ptr, i32, [4 x i8], ptr, i8, [7 x i8] }>

; Function Attrs: mustprogress nounwind uwtable
define linkonce_odr hidden void @_ZNK5frame15assert_absoluteEv(ptr noundef nonnull align 8 dereferenceable(56) %0) #1 comdat align 2 {
  %2 = alloca ptr, align 8
  store ptr %0, ptr %2, align 8
  ret void
}

; Function Attrs: mustprogress nounwind uwtable
define linkonce_odr hidden noundef ptr @_ZNK5frame13unextended_spEv(ptr noundef nonnull align 8 dereferenceable(56) %0) #1 comdat align 2 {
  %2 = alloca ptr, align 8
  store ptr %0, ptr %2, align 8
  %3 = load ptr, ptr %2, align 8
  call void @_ZNK5frame15assert_absoluteEv(ptr noundef nonnull align 8 dereferenceable(56) %3)
  %4 = getelementptr inbounds %class.frame, ptr %3, i32 0, i32 7
  %5 = load ptr, ptr %4, align 8
  ret ptr %5
}

; Function Attrs: mustprogress nounwind uwtable
define linkonce_odr hidden noundef i32 @_ZNK29jvmtiDeferredLocalVariableSet9vframe_idEv(ptr noundef nonnull align 8 dereferenceable(41) %0) #1 comdat align 2 {
  %2 = alloca ptr, align 8
  store ptr %0, ptr %2, align 8
  %3 = load ptr, ptr %2, align 8
  %4 = getelementptr inbounds %class.jvmtiDeferredLocalVariableSet, ptr %3, i32 0, i32 4
  %5 = load i32, ptr %4, align 8
  ret i32 %5
}

; Function Attrs: mustprogress nounwind uwtable
define linkonce_odr hidden noundef i32 @_ZNK14compiledVFrame9vframe_idEv(ptr noundef nonnull align 8 dereferenceable(5076) %0) #1 comdat align 2 {
  %2 = alloca ptr, align 8
  store ptr %0, ptr %2, align 8
  %3 = load ptr, ptr %2, align 8
  %4 = getelementptr inbounds %class.compiledVFrame, ptr %3, i32 0, i32 2
  %5 = load i32, ptr %4, align 8
  ret i32 %5
}

; Function Attrs: mustprogress nounwind uwtable
define linkonce_odr hidden noundef ptr @_ZNK29jvmtiDeferredLocalVariableSet2idEv(ptr noundef nonnull align 8 dereferenceable(41) %0) #1 comdat align 2 {
  %2 = alloca ptr, align 8
  store ptr %0, ptr %2, align 8
  %3 = load ptr, ptr %2, align 8
  %4 = getelementptr inbounds %class.jvmtiDeferredLocalVariableSet, ptr %3, i32 0, i32 3
  %5 = load ptr, ptr %4, align 8
  ret ptr %5
}

; Function Attrs: mustprogress nounwind uwtable
define linkonce_odr hidden noundef ptr @_ZNK5frame2idEv(ptr noundef nonnull align 8 dereferenceable(56) %0) #1 comdat align 2 {
  %2 = alloca ptr, align 8
  store ptr %0, ptr %2, align 8
  %3 = load ptr, ptr %2, align 8
  %4 = call noundef ptr @_ZNK5frame13unextended_spEv(ptr noundef nonnull align 8 dereferenceable(56) %3)
  ret ptr %4
}

; Function Attrs: mustprogress nounwind uwtable
define linkonce_odr hidden void @_ZNK6vframe2frEv(ptr dead_on_unwind noalias writable sret(%class.frame) align 8 %0, ptr noundef nonnull align 8 dereferenceable(5064) %1) #1 comdat align 2 {
  %3 = alloca ptr, align 8
  store ptr %1, ptr %3, align 8
  %4 = load ptr, ptr %3, align 8
  %5 = getelementptr inbounds %class.vframe, ptr %4, i32 0, i32 1
  call void @llvm.memcpy.p0.p0.i64(ptr align 8 %0, ptr align 8 %5, i64 56, i1 false)
  ret void
}

; Function Attrs: mustprogress nounwind uwtable
define hidden noundef zeroext i1 @_ZN29jvmtiDeferredLocalVariableSet7matchesEPK6vframe(ptr noundef nonnull align 8 dereferenceable(41) %0, ptr noundef %1) #1 align 2 {
  %3 = alloca i1, align 1
  %4 = alloca ptr, align 8
  %5 = alloca ptr, align 8
  %6 = alloca ptr, align 8
  %7 = alloca %class.frame, align 8
  store ptr %0, ptr %4, align 8
  store ptr %1, ptr %5, align 8
  %8 = load ptr, ptr %4, align 8
  %9 = load ptr, ptr %5, align 8
  %10 = load ptr, ptr %9, align 8
  %11 = getelementptr inbounds ptr, ptr %10, i64 5
  %12 = load ptr, ptr %11, align 8
  %13 = call noundef zeroext i1 %12(ptr noundef nonnull align 8 dereferenceable(5064) %9)
  br i1 %13, label %15, label %14

14:                                               ; preds = %2
  store i1 false, ptr %3, align 1
  br label %30

15:                                               ; preds = %2
  %16 = load ptr, ptr %5, align 8
  store ptr %16, ptr %6, align 8
  %17 = load ptr, ptr %6, align 8
  call void @_ZNK6vframe2frEv(ptr dead_on_unwind writable sret(%class.frame) align 8 %7, ptr noundef nonnull align 8 dereferenceable(5064) %17)
  %18 = call noundef ptr @_ZNK5frame2idEv(ptr noundef nonnull align 8 dereferenceable(56) %7)
  %19 = call noundef ptr @_ZNK29jvmtiDeferredLocalVariableSet2idEv(ptr noundef nonnull align 8 dereferenceable(41) %8)
  %20 = icmp eq ptr %18, %19
  br i1 %20, label %21, label %26

21:                                               ; preds = %15
  %22 = load ptr, ptr %6, align 8
  %23 = call noundef i32 @_ZNK14compiledVFrame9vframe_idEv(ptr noundef nonnull align 8 dereferenceable(5076) %22)
  %24 = call noundef i32 @_ZNK29jvmtiDeferredLocalVariableSet9vframe_idEv(ptr noundef nonnull align 8 dereferenceable(41) %8)
  %25 = icmp eq i32 %23, %24
  br label %26

26:                                               ; preds = %21, %15
  %27 = phi i1 [ false, %15 ], [ %25, %21 ]
  br i1 %27, label %28, label %29

28:                                               ; preds = %26
  store i1 true, ptr %3, align 1
  br label %30

29:                                               ; preds = %26
  store i1 false, ptr %3, align 1
  br label %30

30:                                               ; preds = %29, %28, %14
  %31 = load i1, ptr %3, align 1
  ret i1 %31
}