; Function Attrs: mustprogress nounwind uwtable
define hidden noundef zeroext i1 @_ZN29jvmtiDeferredLocalVariableSet7matchesEPK6vframe(ptr nocapture noundef nonnull readonly align 8 dereferenceable(41) %0, ptr noundef %1) local_unnamed_addr #0 align 2 {
  %3 = load ptr, ptr %1, align 8
  %4 = getelementptr inbounds i8, ptr %3, i64 40
  %5 = load ptr, ptr %4, align 8
  %6 = tail call noundef zeroext i1 %5(ptr noundef nonnull align 8 dereferenceable(5064) %1) #11
  br i1 %6, label %7, label %17

7:                                                ; preds = %2
  %.sroa.1.0..sroa_idx = getelementptr inbounds i8, ptr %1, i64 56
  %.sroa.1.0.copyload = load ptr, ptr %.sroa.1.0..sroa_idx, align 8
  %8 = getelementptr inbounds i8, ptr %0, i64 16
  %9 = load ptr, ptr %8, align 8
  %10 = icmp eq ptr %.sroa.1.0.copyload, %9
  br i1 %10, label %11, label %.critedge

11:                                               ; preds = %7
  %12 = getelementptr inbounds i8, ptr %1, i64 5072
  %13 = load i32, ptr %12, align 8
  %14 = getelementptr inbounds i8, ptr %0, i64 24
  %15 = load i32, ptr %14, align 8
  %16 = icmp eq i32 %13, %15
  br i1 %16, label %17, label %.critedge

.critedge:                                        ; preds = %7, %11
  br label %17

17:                                               ; preds = %11, %2, %.critedge
  %.0 = phi i1 [ false, %.critedge ], [ false, %2 ], [ true, %11 ]
  ret i1 %.0
}